Certificate:
    Data:
        Version: 3 (0x2)
        Serial Number:
            d2:21:cf:ea:fe:36:f6:f3:09:f7:a8:65:7a:71:94:e9
        Signature Algorithm: sha256WithRSAEncryption
        Issuer: CN=Easy-RSA CA
        Validity
            Not Before: Apr 30 23:57:43 2022 GMT
            Not After : Aug  2 23:57:43 2024 GMT
        Subject: CN=test
        Subject Public Key Info:
            Public Key Algorithm: rsaEncryption
                RSA Public-Key: (2048 bit)
                Modulus:
                    00:bf:ab:33:77:ef:6b:fe:08:ca:6e:76:9d:38:c4:
                    e8:01:69:94:ef:d5:fd:4a:4d:ec:21:dd:64:93:17:
                    32:3b:fc:c0:b3:48:68:ea:38:b3:fe:6a:e4:d4:2b:
                    bd:59:86:05:58:ba:1b:11:22:f0:7a:17:e7:10:75:
                    55:7f:d8:cb:2d:60:b4:51:2f:8e:03:3f:fa:72:90:
                    3a:29:fe:9d:9c:4c:52:ea:3a:96:14:1d:87:b0:10:
                    dd:82:a9:f7:74:77:58:b9:26:07:34:e1:a5:f3:5a:
                    4d:1f:7d:5a:ca:24:b6:17:5c:7c:93:81:0a:a0:18:
                    9c:15:f7:c3:08:4c:5a:d5:1a:7c:15:af:35:58:47:
                    df:e2:ee:97:dc:45:3b:3f:f3:58:11:f6:37:ef:23:
                    0c:db:d2:0b:8c:9e:78:da:72:3c:c2:b9:81:70:72:
                    2a:52:3c:5b:8e:84:1c:e0:c3:21:a2:47:d9:65:b6:
                    3d:f9:93:bc:ea:5c:e1:8d:5d:37:57:83:23:5c:5a:
                    61:34:37:69:6f:77:9f:61:bc:8b:f1:59:02:00:8e:
                    4c:39:19:3a:0a:02:1a:9e:b8:9e:f6:00:e2:d7:f2:
                    69:89:b3:53:26:ce:7b:6d:5f:6b:19:7a:58:44:bc:
                    0e:9b:74:f5:c0:ab:d8:32:e8:8b:3e:44:f6:50:e2:
                    7a:b1
                Exponent: 65537 (0x10001)
        X509v3 extensions:
            X509v3 Basic Constraints: 
                CA:FALSE
            X509v3 Subject Key Identifier: 
                03:70:6A:A5:8A:C4:6E:D4:51:3F:0A:16:37:A4:2C:8B:59:1D:6C:D5
            X509v3 Authority Key Identifier: 
                keyid:D4:45:51:FB:A7:40:EC:9F:EC:D0:C5:11:0B:43:52:D5:BE:DD:1A:0B
                DirName:/CN=Easy-RSA CA
                serial:19:EA:AE:9E:DC:54:63:D6:5B:23:0B:A2:92:44:89:26:AA:50:6D:02

            X509v3 Extended Key Usage: 
                TLS Web Client Authentication
            X509v3 Key Usage: 
                Digital Signature
    Signature Algorithm: sha256WithRSAEncryption
         0c:1f:ad:74:9f:1f:9c:56:39:45:35:b2:8c:84:f5:3c:65:3f:
         26:dd:fe:30:07:25:6a:96:3b:a0:aa:e6:e4:50:21:6f:28:ea:
         e4:db:ba:81:ec:b4:f3:93:cc:99:b5:c7:ff:43:f9:1f:a2:0c:
         23:77:7e:f3:8f:2a:3b:c1:70:75:ca:16:fd:fd:c0:bc:49:bb:
         2c:4e:91:a1:d7:15:13:8b:2e:28:72:34:9a:6a:e8:a8:7c:66:
         ef:77:3e:b6:6a:b4:58:f2:08:86:d5:c8:ed:fd:f1:b8:13:b5:
         c4:f8:51:8e:22:b0:0f:81:ac:41:1a:5a:41:d6:c4:61:e6:64:
         bb:45:40:42:90:74:89:2d:56:0f:8e:0a:71:59:a4:08:22:bb:
         39:30:14:ca:78:98:d1:55:22:fa:d5:8b:8f:ff:77:26:d2:00:
         91:ea:bb:da:40:27:61:64:81:d2:09:01:a5:cc:19:8b:37:d9:
         bc:b5:6e:fd:be:0e:ce:c4:23:74:8d:0f:fc:1c:43:bd:30:8a:
         48:96:ea:dd:ce:ff:c8:6a:0d:f5:eb:b3:f9:76:13:07:f5:05:
         ff:07:05:db:02:1e:ec:5f:81:51:9f:4b:6e:26:32:ba:83:f0:
         60:11:32:5f:94:c0:82:43:d5:3e:27:40:60:da:86:bb:4c:45:
         c1:4b:0e:e2
-----BEGIN CERTIFICATE-----
MIIDUzCCAjugAwIBAgIRANIhz+r+NvbzCfeoZXpxlOkwDQYJKoZIhvcNAQELBQAw
FjEUMBIGA1UEAwwLRWFzeS1SU0EgQ0EwHhcNMjIwNDMwMjM1NzQzWhcNMjQwODAy
MjM1NzQzWjAPMQ0wCwYDVQQDDAR0ZXN0MIIBIjANBgkqhkiG9w0BAQEFAAOCAQ8A
MIIBCgKCAQEAv6szd+9r/gjKbnadOMToAWmU79X9Sk3sId1kkxcyO/zAs0ho6jiz
/mrk1Cu9WYYFWLobESLwehfnEHVVf9jLLWC0US+OAz/6cpA6Kf6dnExS6jqWFB2H
sBDdgqn3dHdYuSYHNOGl81pNH31ayiS2F1x8k4EKoBicFffDCExa1Rp8Fa81WEff
4u6X3EU7P/NYEfY37yMM29ILjJ542nI8wrmBcHIqUjxbjoQc4MMhokfZZbY9+ZO8
6lzhjV03V4MjXFphNDdpb3efYbyL8VkCAI5MORk6CgIanrie9gDi1/JpibNTJs57
bV9rGXpYRLwOm3T1wKvYMuiLPkT2UOJ6sQIDAQABo4GiMIGfMAkGA1UdEwQCMAAw
HQYDVR0OBBYEFANwaqWKxG7UUT8KFjekLItZHWzVMFEGA1UdIwRKMEiAFNRFUfun
QOyf7NDFEQtDUtW+3RoLoRqkGDAWMRQwEgYDVQQDDAtFYXN5LVJTQSBDQYIUGequ
ntxUY9ZbIwuikkSJJqpQbQIwEwYDVR0lBAwwCgYIKwYBBQUHAwIwCwYDVR0PBAQD
AgeAMA0GCSqGSIb3DQEBCwUAA4IBAQAMH610nx+cVjlFNbKMhPU8ZT8m3f4wByVq
ljugqubkUCFvKOrk27qB7LTzk8yZtcf/Q/kfogwjd37zjyo7wXB1yhb9/cC8Sbss
TpGh1xUTiy4ocjSaauiofGbvdz62arRY8giG1cjt/fG4E7XE+FGOIrAPgaxBGlpB
1sRh5mS7RUBCkHSJLVYPjgpxWaQIIrs5MBTKeJjRVSL61YuP/3cm0gCR6rvaQCdh
ZIHSCQGlzBmLN9m8tW79vg7OxCN0jQ/8HEO9MIpIlurdzv/Iag3167P5dhMH9QX/
BwXbAh7sX4FRn0tuJjK6g/BgETJflMCCQ9U+J0Bg2oa7TEXBSw7i
-----END CERTIFICATE-----
