Certificate:
    Data:
        Version: 3 (0x2)
        Serial Number:
            a5:c3:86:94:1f:ac:2b:63:87:73:7d:91:6b:dc:7e:78
        Signature Algorithm: sha256WithRSAEncryption
        Issuer: CN=Easy-RSA CA
        Validity
            Not Before: Apr 30 23:56:50 2022 GMT
            Not After : Aug  2 23:56:50 2024 GMT
        Subject: CN=vpn.example.com
        Subject Public Key Info:
            Public Key Algorithm: rsaEncryption
                RSA Public-Key: (2048 bit)
                Modulus:
                    00:c3:52:ea:50:80:b3:e3:cf:d5:dd:10:46:ac:f7:
                    ac:9f:6c:81:b4:94:4c:63:da:d4:f5:d0:3b:51:61:
                    a2:1f:71:83:7a:16:53:d8:72:06:89:ed:41:05:e2:
                    bd:fc:e6:53:63:e1:c5:a9:47:70:5d:6b:b5:3b:80:
                    59:1c:4a:4c:31:bc:4b:b5:51:b3:f5:31:ea:1a:78:
                    b6:8e:3b:3e:7f:86:a7:07:38:06:08:d5:f2:0d:16:
                    7a:be:06:1d:71:4d:e1:47:36:fd:97:2a:ba:09:7d:
                    8c:03:7f:8e:69:47:b6:73:38:06:f2:c5:13:b1:4d:
                    60:11:50:6b:ca:c6:37:26:df:c1:18:e4:d3:23:c2:
                    89:c1:ff:34:b5:b6:f1:97:43:dc:db:2f:55:8e:1c:
                    cf:47:fd:03:da:11:f7:2d:22:7e:d7:1f:59:82:cb:
                    ef:bf:0e:f4:13:86:0a:9d:8f:04:01:d8:14:ab:04:
                    a2:64:7f:c2:d0:55:64:ab:01:d4:24:d0:9d:0c:6b:
                    f2:10:09:c9:32:77:68:ee:3e:39:3c:3a:4b:5e:cd:
                    b6:ec:36:2d:21:8d:88:48:0f:db:2b:9f:9e:23:1a:
                    68:c4:33:82:8b:12:2a:f3:de:12:a8:75:a3:d8:60:
                    2a:77:05:c9:07:98:7a:c4:64:a7:a5:41:b9:2b:48:
                    26:8d
                Exponent: 65537 (0x10001)
        X509v3 extensions:
            X509v3 Basic Constraints: 
                CA:FALSE
            X509v3 Subject Key Identifier: 
                30:A3:62:8C:C9:AA:BC:F5:59:4B:72:90:C4:2A:5E:BA:9F:1C:70:83
            X509v3 Authority Key Identifier: 
                keyid:D4:45:51:FB:A7:40:EC:9F:EC:D0:C5:11:0B:43:52:D5:BE:DD:1A:0B
                DirName:/CN=Easy-RSA CA
                serial:19:EA:AE:9E:DC:54:63:D6:5B:23:0B:A2:92:44:89:26:AA:50:6D:02

            X509v3 Extended Key Usage: 
                TLS Web Server Authentication
            X509v3 Key Usage: 
                Digital Signature, Key Encipherment
            X509v3 Subject Alternative Name: 
                DNS:vpn.example.com
    Signature Algorithm: sha256WithRSAEncryption
         51:fe:10:ad:67:2e:e0:53:d5:e7:b1:d5:ce:a4:8f:b1:56:47:
         e1:67:82:6c:60:07:c5:64:3f:ee:8a:e7:80:aa:08:e7:e4:33:
         85:ca:53:7c:e9:48:ab:d8:04:21:b4:a6:73:66:de:e5:4c:f3:
         d7:bb:29:aa:34:55:40:c4:f0:2e:e4:bf:2f:ec:fc:4a:f3:ac:
         18:82:a8:b2:00:37:fb:b8:2f:b3:fe:ea:0b:c0:a1:0d:fd:01:
         4b:12:04:d9:66:3c:10:18:eb:22:8b:61:bb:c6:06:3b:6d:28:
         a7:3b:f5:0a:7d:9b:3f:9a:03:42:11:6b:f8:c3:73:b9:b3:99:
         66:6e:aa:90:3e:25:68:ad:2b:5f:a2:14:70:84:8f:9d:f5:1b:
         65:69:2b:de:7e:21:0d:67:6e:27:73:a0:86:c5:ed:aa:1f:91:
         f5:eb:e4:36:51:72:67:13:21:2b:fd:81:96:91:a5:5d:98:b0:
         6d:45:9d:0d:ba:f1:e8:9d:eb:fc:fe:65:b3:ab:15:8b:4f:df:
         08:27:25:1d:fd:da:13:2b:3a:5c:52:02:7c:66:ce:50:58:b4:
         14:64:35:de:47:ac:7c:43:3f:d5:31:c0:22:18:e0:df:8d:01:
         fe:e7:38:e2:11:b9:fc:41:94:d7:78:31:17:02:97:48:94:f7:
         a7:f0:f0:c4
-----BEGIN CERTIFICATE-----
MIIDejCCAmKgAwIBAgIRAKXDhpQfrCtjh3N9kWvcfngwDQYJKoZIhvcNAQELBQAw
FjEUMBIGA1UEAwwLRWFzeS1SU0EgQ0EwHhcNMjIwNDMwMjM1NjUwWhcNMjQwODAy
MjM1NjUwWjAaMRgwFgYDVQQDDA92cG4uZXhhbXBsZS5jb20wggEiMA0GCSqGSIb3
DQEBAQUAA4IBDwAwggEKAoIBAQDDUupQgLPjz9XdEEas96yfbIG0lExj2tT10DtR
YaIfcYN6FlPYcgaJ7UEF4r385lNj4cWpR3Bda7U7gFkcSkwxvEu1UbP1MeoaeLaO
Oz5/hqcHOAYI1fINFnq+Bh1xTeFHNv2XKroJfYwDf45pR7ZzOAbyxROxTWARUGvK
xjcm38EY5NMjwonB/zS1tvGXQ9zbL1WOHM9H/QPaEfctIn7XH1mCy++/DvQThgqd
jwQB2BSrBKJkf8LQVWSrAdQk0J0Ma/IQCckyd2juPjk8OktezbbsNi0hjYhID9sr
n54jGmjEM4KLEirz3hKodaPYYCp3BckHmHrEZKelQbkrSCaNAgMBAAGjgb4wgbsw
CQYDVR0TBAIwADAdBgNVHQ4EFgQUMKNijMmqvPVZS3KQxCpeup8ccIMwUQYDVR0j
BEowSIAU1EVR+6dA7J/s0MURC0NS1b7dGguhGqQYMBYxFDASBgNVBAMMC0Vhc3kt
UlNBIENBghQZ6q6e3FRj1lsjC6KSRIkmqlBtAjATBgNVHSUEDDAKBggrBgEFBQcD
ATALBgNVHQ8EBAMCBaAwGgYDVR0RBBMwEYIPdnBuLmV4YW1wbGUuY29tMA0GCSqG
SIb3DQEBCwUAA4IBAQBR/hCtZy7gU9XnsdXOpI+xVkfhZ4JsYAfFZD/uiueAqgjn
5DOFylN86Uir2AQhtKZzZt7lTPPXuymqNFVAxPAu5L8v7PxK86wYgqiyADf7uC+z
/uoLwKEN/QFLEgTZZjwQGOsii2G7xgY7bSinO/UKfZs/mgNCEWv4w3O5s5lmbqqQ
PiVorStfohRwhI+d9RtlaSvefiENZ24nc6CGxe2qH5H16+Q2UXJnEyEr/YGWkaVd
mLBtRZ0NuvHonev8/mWzqxWLT98IJyUd/doTKzpcUgJ8Zs5QWLQUZDXeR6x8Qz/V
McAiGODfjQH+5zjiEbn8QZTXeDEXApdIlPen8PDE
-----END CERTIFICATE-----
