Certificate:
    Data:
        Version: 3 (0x2)
        Serial Number:
            99:11:d8:f8:b9:19:7a:56:be:af:47:a6:ff:95:64:b2
        Signature Algorithm: sha256WithRSAEncryption
        Issuer: CN=Easy-RSA CA
        Validity
            Not Before: Jan 15 22:17:51 2023 GMT
            Not After : Apr 19 22:17:51 2025 GMT
        Subject: CN=vpn.example.com
        Subject Public Key Info:
            Public Key Algorithm: rsaEncryption
                Public-Key: (2048 bit)
                Modulus:
                    00:b4:27:dc:41:7a:87:c4:b5:0e:f3:76:90:ed:73:
                    85:dd:a7:36:85:78:04:e3:23:89:1e:3f:bb:0f:b5:
                    90:2a:d6:2e:fa:95:70:bb:47:28:c4:51:2a:50:fd:
                    eb:38:16:e1:8c:76:58:74:10:74:0e:34:c6:d6:d6:
                    64:44:85:5f:a2:f2:17:76:e0:7b:54:69:c2:5b:60:
                    d8:3e:8e:73:ec:38:2a:b3:23:fd:e3:4d:77:03:ed:
                    82:66:55:15:1d:b8:20:7c:a5:23:06:af:91:b3:ff:
                    a2:4f:48:eb:0a:d7:c2:56:32:fb:bb:67:72:78:1b:
                    7d:2e:f3:e5:a2:df:83:92:63:57:70:e4:a4:a4:8d:
                    bc:17:f4:07:89:da:1d:c5:b6:b9:8b:d4:b2:09:d8:
                    e0:7f:25:91:37:6b:7b:84:a1:df:5d:ef:c9:9e:fe:
                    14:de:05:ab:9b:b4:05:8e:fb:56:b8:4e:34:36:47:
                    7b:3e:11:8d:ff:de:89:4a:6d:85:d0:30:9c:cf:9a:
                    66:82:ae:df:b9:db:fb:d8:2e:07:9b:df:3b:29:39:
                    52:d6:3d:d7:20:a5:85:f1:8a:57:ce:ff:08:f6:9b:
                    f5:ec:e0:65:a2:1b:bd:4b:e2:6c:aa:e0:11:28:90:
                    05:db:1b:83:aa:c9:e5:83:ac:22:a7:16:d6:60:66:
                    8f:67
                Exponent: 65537 (0x10001)
        X509v3 extensions:
            X509v3 Basic Constraints:
                CA:FALSE
            X509v3 Subject Key Identifier:
                62:90:FC:B5:66:8C:16:70:44:FE:EB:E1:AD:C4:E3:DE:6B:C6:D9:6A
            X509v3 Authority Key Identifier:
                keyid:BC:0C:A9:D8:59:41:ED:F3:D8:BE:9E:F2:0D:69:EB:57:E1:7F:E9:67
                DirName:/CN=Easy-RSA CA
                serial:36:3D:49:6A:DA:4A:AF:67:5E:35:F0:03:10:D9:7C:D9:2A:CC:83:B2
            X509v3 Extended Key Usage:
                TLS Web Server Authentication
            X509v3 Key Usage:
                Digital Signature, Key Encipherment
            X509v3 Subject Alternative Name:
                DNS:vpn.example.com
    Signature Algorithm: sha256WithRSAEncryption
    Signature Value:
        6b:f8:1f:5b:90:a1:63:7e:6f:ce:4d:93:6d:97:64:6a:05:c2:
        25:6e:91:8b:46:1f:bb:ec:1b:5f:9f:12:ad:a0:97:4f:f5:db:
        e9:9d:db:27:32:e8:b5:69:1d:12:56:03:97:32:5c:04:c3:1a:
        eb:38:cb:f7:f8:63:dd:ab:70:50:e6:00:13:48:e5:81:26:8d:
        48:86:01:7e:64:b0:92:a4:0f:5d:3f:53:c2:aa:d7:cb:40:e4:
        f1:2d:8c:27:60:50:45:49:17:50:1f:4b:6d:6e:68:8d:00:e0:
        0e:14:d1:a7:f6:c1:8f:36:d0:5d:2e:04:db:bb:c9:89:a0:f0:
        72:2b:68:9f:c8:b6:b1:7f:39:3b:42:38:8e:5d:ae:5f:14:4c:
        15:6f:b4:72:80:27:b1:e2:bd:76:45:30:78:ab:f5:59:f1:7f:
        5e:a3:20:c2:49:82:3c:ad:91:b9:93:38:a0:2d:02:d2:18:3f:
        21:e6:e2:97:29:ea:b9:b1:6d:4c:ec:19:f9:aa:da:40:0d:d6:
        61:ce:8d:c1:f4:e8:5b:aa:92:ff:8d:3b:9c:67:76:ce:44:43:
        2f:99:c1:2a:6d:a0:8d:45:fd:08:35:20:42:bb:b6:a6:3c:9a:
        c7:ae:55:f1:1c:69:ca:b0:71:a7:e8:0f:47:75:2b:8f:79:a5:
        01:31:34:9b
-----BEGIN CERTIFICATE-----
MIIDejCCAmKgAwIBAgIRAJkR2Pi5GXpWvq9Hpv+VZLIwDQYJKoZIhvcNAQELBQAw
FjEUMBIGA1UEAwwLRWFzeS1SU0EgQ0EwHhcNMjMwMTE1MjIxNzUxWhcNMjUwNDE5
MjIxNzUxWjAaMRgwFgYDVQQDDA92cG4uZXhhbXBsZS5jb20wggEiMA0GCSqGSIb3
DQEBAQUAA4IBDwAwggEKAoIBAQC0J9xBeofEtQ7zdpDtc4XdpzaFeATjI4keP7sP
tZAq1i76lXC7RyjEUSpQ/es4FuGMdlh0EHQONMbW1mREhV+i8hd24HtUacJbYNg+
jnPsOCqzI/3jTXcD7YJmVRUduCB8pSMGr5Gz/6JPSOsK18JWMvu7Z3J4G30u8+Wi
34OSY1dw5KSkjbwX9AeJ2h3FtrmL1LIJ2OB/JZE3a3uEod9d78me/hTeBaubtAWO
+1a4TjQ2R3s+EY3/3olKbYXQMJzPmmaCrt+52/vYLgeb3zspOVLWPdcgpYXxilfO
/wj2m/Xs4GWiG71L4myq4BEokAXbG4OqyeWDrCKnFtZgZo9nAgMBAAGjgb4wgbsw
CQYDVR0TBAIwADAdBgNVHQ4EFgQUYpD8tWaMFnBE/uvhrcTj3mvG2WowUQYDVR0j
BEowSIAUvAyp2FlB7fPYvp7yDWnrV+F/6WehGqQYMBYxFDASBgNVBAMMC0Vhc3kt
UlNBIENBghQ2PUlq2kqvZ1418AMQ2XzZKsyDsjATBgNVHSUEDDAKBggrBgEFBQcD
ATALBgNVHQ8EBAMCBaAwGgYDVR0RBBMwEYIPdnBuLmV4YW1wbGUuY29tMA0GCSqG
SIb3DQEBCwUAA4IBAQBr+B9bkKFjfm/OTZNtl2RqBcIlbpGLRh+77BtfnxKtoJdP
9dvpndsnMui1aR0SVgOXMlwEwxrrOMv3+GPdq3BQ5gATSOWBJo1IhgF+ZLCSpA9d
P1PCqtfLQOTxLYwnYFBFSRdQH0ttbmiNAOAOFNGn9sGPNtBdLgTbu8mJoPByK2if
yLaxfzk7QjiOXa5fFEwVb7RygCex4r12RTB4q/VZ8X9eoyDCSYI8rZG5kzigLQLS
GD8h5uKXKeq5sW1M7Bn5qtpADdZhzo3B9OhbqpL/jTucZ3bOREMvmcEqbaCNRf0I
NSBCu7amPJrHrlXxHGnKsHGn6A9HdSuPeaUBMTSb
-----END CERTIFICATE-----