Certificate:
    Data:
        Version: 3 (0x2)
        Serial Number:
            99:8c:16:95:e4:9d:04:70:a3:25:dc:ef:08:dc:15:dd
        Signature Algorithm: sha256WithRSAEncryption
        Issuer: CN=ChangeMe
        Validity
            Not Before: Jun  1 01:39:03 2022 GMT
            Not After : May 31 01:39:03 2027 GMT
        Subject: CN=test
        Subject Public Key Info:
            Public Key Algorithm: id-ecPublicKey
                Public-Key: (256 bit)
                pub:
                    04:d2:63:e4:b1:54:21:4c:41:89:80:32:d9:ac:48:
                    0f:5c:11:c8:77:9e:a2:74:f7:58:72:1a:27:c8:57:
                    3b:83:66:ea:2f:e0:d4:09:46:29:20:60:19:02:ad:
                    c5:43:8b:41:6e:d5:3a:31:96:97:c3:05:ad:85:25:
                    c2:40:96:b3:0f
                ASN1 OID: prime256v1
                NIST CURVE: P-256
        X509v3 extensions:
            X509v3 Basic Constraints: 
                CA:FALSE
            X509v3 Subject Key Identifier: 
                FE:EC:FC:D1:6E:8A:64:CE:B4:7D:41:EA:57:B9:BA:D5:DA:53:4A:01
            X509v3 Authority Key Identifier: 
                keyid:3B:72:5A:41:86:C0:06:B0:B1:C0:39:E9:F4:60:81:21:61:BE:33:6B
                DirName:/CN=ChangeMe
                serial:31:C4:D2:20:DD:1B:E8:6B:C7:85:DE:2C:0C:3E:32:D1:2B:10:17:03

            X509v3 Extended Key Usage: 
                TLS Web Client Authentication
            X509v3 Key Usage: 
                Digital Signature
    Signature Algorithm: sha256WithRSAEncryption
         ea:e1:e0:4d:9c:97:b7:d4:a9:16:e0:aa:5b:dd:c1:1b:51:b6:
         8d:91:67:19:9c:b3:0a:40:3e:27:bd:01:8d:19:70:23:00:7a:
         b2:13:84:62:ba:42:11:f7:bd:5b:54:f6:a8:06:d1:69:d1:2d:
         95:a4:32:14:36:11:af:25:b7:b1:7d:20:83:33:b2:a3:85:9e:
         d1:c6:ab:32:aa:05:76:63:51:29:88:fe:11:42:89:d2:c9:c6:
         21:9b:38:a2:49:94:a7:b8:d1:90:af:22:58:66:0a:16:58:7c:
         e2:82:64:6a:77:f7:80:f9:e6:01:ad:fa:b7:e0:07:64:85:6a:
         76:42:b3:68:88:8e:f7:d6:f1:6e:54:5a:1d:5e:0f:79:ab:ba:
         b6:8f:22:c9:a0:79:a6:2b:96:ff:84:17:0a:b9:e2:8a:4b:fd:
         53:c9:f9:d3:f1:bb:00:28:6e:48:89:44:04:ca:62:d8:81:17:
         3b:18:ea:e0:10:ca:46:06:ba:80:a1:c0:4e:4d:d2:01:05:cb:
         52:ea:ea:17:7a:73:2a:00:c2:34:f3:b9:9d:84:17:af:42:c7:
         65:66:a6:14:35:12:49:4b:b6:06:90:1d:5d:9d:22:af:9e:b0:
         fc:ab:7c:22:e4:66:28:bb:1c:1b:af:f9:eb:1a:3b:12:06:5e:
         1d:dc:60:af
-----BEGIN CERTIFICATE-----
MIICgjCCAWqgAwIBAgIRAJmMFpXknQRwoyXc7wjcFd0wDQYJKoZIhvcNAQELBQAw
EzERMA8GA1UEAwwIQ2hhbmdlTWUwHhcNMjIwNjAxMDEzOTAzWhcNMjcwNTMxMDEz
OTAzWjAPMQ0wCwYDVQQDDAR0ZXN0MFkwEwYHKoZIzj0CAQYIKoZIzj0DAQcDQgAE
0mPksVQhTEGJgDLZrEgPXBHId56idPdYchonyFc7g2bqL+DUCUYpIGAZAq3FQ4tB
btU6MZaXwwWthSXCQJazD6OBnzCBnDAJBgNVHRMEAjAAMB0GA1UdDgQWBBT+7PzR
bopkzrR9QepXubrV2lNKATBOBgNVHSMERzBFgBQ7clpBhsAGsLHAOen0YIEhYb4z
a6EXpBUwEzERMA8GA1UEAwwIQ2hhbmdlTWWCFDHE0iDdG+hrx4XeLAw+MtErEBcD
MBMGA1UdJQQMMAoGCCsGAQUFBwMCMAsGA1UdDwQEAwIHgDANBgkqhkiG9w0BAQsF
AAOCAQEA6uHgTZyXt9SpFuCqW93BG1G2jZFnGZyzCkA+J70BjRlwIwB6shOEYrpC
Efe9W1T2qAbRadEtlaQyFDYRryW3sX0ggzOyo4We0carMqoFdmNRKYj+EUKJ0snG
IZs4okmUp7jRkK8iWGYKFlh84oJkanf3gPnmAa36t+AHZIVqdkKzaIiO99bxblRa
HV4Peau6to8iyaB5piuW/4QXCrniikv9U8n50/G7AChuSIlEBMpi2IEXOxjq4BDK
Rga6gKHATk3SAQXLUurqF3pzKgDCNPO5nYQXr0LHZWamFDUSSUu2BpAdXZ0ir56w
/Kt8IuRmKLscG6/56xo7EgZeHdxgrw==
-----END CERTIFICATE-----
